target datalayout = "e-m:e-p270:32:32-p271:32:32-p272:64:64-i64:64-i128:128-f80:128-n8:16:32:64-S128"
target triple = "x86_64-pc-linux-gnu"

%"class.folly::Range" = type { ptr, ptr }
%"struct.google::CheckOpString" = type { ptr }
%"class.google::LogMessageFatal" = type { %"class.google::LogMessage" }
%"class.google::LogMessage" = type { ptr, ptr }
%"class.google::base::CheckOpMessageBuilder" = type { ptr }

@.str.1 = private unnamed_addr constant [134 x i8] c"generated/home/dtcxzyw/WorkSpace/Projects/compilers/llvm-opt-benchmark/bench/folly/folly/folly/crypto/detail/MathOperation_Simple.cpp\00", align 1
@.str.5 = private unnamed_addr constant [35 x i8] c"0 == buf.size() % sizeof(uint64_t)\00", align 1

; Function Attrs: mustprogress uwtable
define available_externally noundef nonnull align 8 dereferenceable(8) ptr @_ZNSolsEm(ptr noundef nonnull align 8 dereferenceable(8) %0, i64 noundef %1) #1 align 2 {
  %3 = alloca ptr, align 8
  %4 = alloca i64, align 8
  store ptr %0, ptr %3, align 8, !tbaa !46
  store i64 %1, ptr %4, align 8, !tbaa !7
  %5 = load ptr, ptr %3, align 8
  %6 = load i64, ptr %4, align 8, !tbaa !7
  %7 = call noundef nonnull align 8 dereferenceable(8) ptr @_ZNSo9_M_insertImEERSoT_(ptr noundef nonnull align 8 dereferenceable(8) %5, i64 noundef %6)
  ret ptr %7
}

; Function Attrs: inlinehint mustprogress uwtable
define linkonce_odr void @_ZN6google22MakeCheckOpValueStringImEEvPSoRKT_(ptr noundef %0, ptr noundef nonnull align 8 dereferenceable(8) %1) #3 comdat {
  %3 = alloca ptr, align 8
  %4 = alloca ptr, align 8
  store ptr %0, ptr %3, align 8, !tbaa !46
  store ptr %1, ptr %4, align 8, !tbaa !17
  %5 = load ptr, ptr %3, align 8, !tbaa !46
  %6 = load ptr, ptr %4, align 8, !tbaa !17
  %7 = load i64, ptr %6, align 8, !tbaa !7
  %8 = call noundef nonnull align 8 dereferenceable(8) ptr @_ZNSolsEm(ptr noundef nonnull align 8 dereferenceable(8) %5, i64 noundef %7)
  ret void
}

; Function Attrs: inlinehint mustprogress uwtable
define linkonce_odr void @_ZN6google22MakeCheckOpValueStringIiEEvPSoRKT_(ptr noundef %0, ptr noundef nonnull align 4 dereferenceable(4) %1) #3 comdat {
  %3 = alloca ptr, align 8
  %4 = alloca ptr, align 8
  store ptr %0, ptr %3, align 8, !tbaa !46
  store ptr %1, ptr %4, align 8, !tbaa !42
  %5 = load ptr, ptr %3, align 8, !tbaa !46
  %6 = load ptr, ptr %4, align 8, !tbaa !42
  %7 = load i32, ptr %6, align 4, !tbaa !14
  %8 = call noundef nonnull align 8 dereferenceable(8) ptr @_ZNSolsEi(ptr noundef nonnull align 8 dereferenceable(8) %5, i32 noundef %7)
  ret void
}

; Function Attrs: mustprogress nounwind uwtable
define linkonce_odr noundef ptr @_ZN6google4base21CheckOpMessageBuilder7ForVar1Ev(ptr noundef nonnull align 8 dereferenceable(8) %0) #0 comdat align 2 {
  %2 = alloca ptr, align 8
  store ptr %0, ptr %2, align 8, !tbaa !48
  %3 = load ptr, ptr %2, align 8
  %4 = getelementptr inbounds nuw %"class.google::base::CheckOpMessageBuilder", ptr %3, i32 0, i32 0
  %5 = load ptr, ptr %4, align 8, !tbaa !50
  ret ptr %5
}

; Function Attrs: mustprogress nounwind uwtable
define linkonce_odr noundef i64 @_ZN5folly6detail9EndianIntImE6littleEm(i64 noundef %0) #0 comdat align 2 {
  %2 = alloca i64, align 8
  store i64 %0, ptr %2, align 8, !tbaa !7
  %3 = load i64, ptr %2, align 8, !tbaa !7
  ret i64 %3
}

; Function Attrs: mustprogress noinline uwtable
define linkonce_odr noundef ptr @_ZN6google17MakeCheckOpStringIimEEPNSt7__cxx1112basic_stringIcSt11char_traitsIcESaIcEEERKT_RKT0_PKc(ptr noundef nonnull align 4 dereferenceable(4) %0, ptr noundef nonnull align 8 dereferenceable(8) %1, ptr noundef %2) #10 comdat personality ptr @__gxx_personality_v0 {
  %4 = alloca ptr, align 8
  %5 = alloca ptr, align 8
  %6 = alloca ptr, align 8
  %7 = alloca %"class.google::base::CheckOpMessageBuilder", align 8
  %8 = alloca ptr, align 8
  %9 = alloca i32, align 4
  store ptr %0, ptr %4, align 8, !tbaa !42
  store ptr %1, ptr %5, align 8, !tbaa !17
  store ptr %2, ptr %6, align 8, !tbaa !24
  call void @llvm.lifetime.start.p0(i64 8, ptr %7) #12
  %10 = load ptr, ptr %6, align 8, !tbaa !24
  call void @_ZN6google4base21CheckOpMessageBuilderC1EPKc(ptr noundef nonnull align 8 dereferenceable(8) %7, ptr noundef %10)
  %11 = call noundef ptr @_ZN6google4base21CheckOpMessageBuilder7ForVar1Ev(ptr noundef nonnull align 8 dereferenceable(8) %7)
  %12 = load ptr, ptr %4, align 8, !tbaa !42
  invoke void @_ZN6google22MakeCheckOpValueStringIiEEvPSoRKT_(ptr noundef %11, ptr noundef nonnull align 4 dereferenceable(4) %12)
          to label %13 unwind label %20

13:                                               ; preds = %3
  %14 = invoke noundef ptr @_ZN6google4base21CheckOpMessageBuilder7ForVar2Ev(ptr noundef nonnull align 8 dereferenceable(8) %7)
          to label %15 unwind label %20

15:                                               ; preds = %13
  %16 = load ptr, ptr %5, align 8, !tbaa !17
  invoke void @_ZN6google22MakeCheckOpValueStringImEEvPSoRKT_(ptr noundef %14, ptr noundef nonnull align 8 dereferenceable(8) %16)
          to label %17 unwind label %20

17:                                               ; preds = %15
  %18 = invoke noundef ptr @_ZN6google4base21CheckOpMessageBuilder9NewStringB5cxx11Ev(ptr noundef nonnull align 8 dereferenceable(8) %7)
          to label %19 unwind label %20

19:                                               ; preds = %17
  call void @_ZN6google4base21CheckOpMessageBuilderD1Ev(ptr noundef nonnull align 8 dereferenceable(8) %7) #12
  call void @llvm.lifetime.end.p0(i64 8, ptr %7) #12
  ret ptr %18

20:                                               ; preds = %17, %15, %13, %3
  %21 = landingpad { ptr, i32 }
          cleanup
  %22 = extractvalue { ptr, i32 } %21, 0
  store ptr %22, ptr %8, align 8
  %23 = extractvalue { ptr, i32 } %21, 1
  store i32 %23, ptr %9, align 4
  call void @_ZN6google4base21CheckOpMessageBuilderD1Ev(ptr noundef nonnull align 8 dereferenceable(8) %7) #12
  call void @llvm.lifetime.end.p0(i64 8, ptr %7) #12
  br label %24

24:                                               ; preds = %20
  %25 = load ptr, ptr %8, align 8
  %26 = load i32, ptr %9, align 4
  %27 = insertvalue { ptr, i32 } poison, ptr %25, 0
  %28 = insertvalue { ptr, i32 } %27, i32 %26, 1
  resume { ptr, i32 } %28
}

; Function Attrs: mustprogress uwtable
define linkonce_odr noundef i64 @_ZN5folly6Endian6littleImEET_S2_(i64 noundef %0) #1 comdat align 2 {
  %2 = alloca i64, align 8
  store i64 %0, ptr %2, align 8, !tbaa !7
  %3 = load i64, ptr %2, align 8, !tbaa !7
  %4 = call noundef i64 @_ZN5folly6detail9EndianIntImE6littleEm(i64 noundef %3)
  ret i64 %4
}

; Function Attrs: mustprogress nounwind uwtable
define linkonce_odr noundef ptr @_ZNK5folly5RangeIPKhE4dataEv(ptr noundef nonnull align 8 dereferenceable(16) %0) #0 comdat align 2 {
  %2 = alloca ptr, align 8
  store ptr %0, ptr %2, align 8, !tbaa !26
  %3 = load ptr, ptr %2, align 8
  %4 = getelementptr inbounds nuw %"class.folly::Range", ptr %3, i32 0, i32 0
  %5 = load ptr, ptr %4, align 8, !tbaa !30
  ret ptr %5
}

; Function Attrs: mustprogress nounwind uwtable
define linkonce_odr noundef zeroext i1 @_ZNK6google13CheckOpStringcvbEv(ptr noundef nonnull align 8 dereferenceable(8) %0) #0 comdat align 2 {
  %2 = alloca ptr, align 8
  store ptr %0, ptr %2, align 8, !tbaa !31
  %3 = load ptr, ptr %2, align 8
  %4 = getelementptr inbounds nuw %"struct.google::CheckOpString", ptr %3, i32 0, i32 0
  %5 = load ptr, ptr %4, align 8, !tbaa !35
  %6 = icmp ne ptr %5, null
  %7 = zext i1 %6 to i64
  %8 = call i64 @llvm.expect.i64(i64 %7, i64 0)
  %9 = icmp ne i64 %8, 0
  ret i1 %9
}

; Function Attrs: mustprogress nounwind uwtable
define linkonce_odr void @_ZN6google13CheckOpStringC2EPNSt7__cxx1112basic_stringIcSt11char_traitsIcESaIcEEE(ptr noundef nonnull align 8 dereferenceable(8) %0, ptr noundef %1) unnamed_addr #0 comdat align 2 {
  %3 = alloca ptr, align 8
  %4 = alloca ptr, align 8
  store ptr %0, ptr %3, align 8, !tbaa !31
  store ptr %1, ptr %4, align 8, !tbaa !33
  %5 = load ptr, ptr %3, align 8
  %6 = getelementptr inbounds nuw %"struct.google::CheckOpString", ptr %5, i32 0, i32 0
  %7 = load ptr, ptr %4, align 8, !tbaa !33
  store ptr %7, ptr %6, align 8, !tbaa !35
  ret void
}

; Function Attrs: inlinehint mustprogress uwtable
define linkonce_odr noundef ptr @_ZN6google12Check_EQImplIimEEPNSt7__cxx1112basic_stringIcSt11char_traitsIcESaIcEEERKT_RKT0_PKc(ptr noundef nonnull align 4 dereferenceable(4) %0, ptr noundef nonnull align 8 dereferenceable(8) %1, ptr noundef %2) #3 comdat {
  %4 = alloca ptr, align 8
  %5 = alloca ptr, align 8
  %6 = alloca ptr, align 8
  %7 = alloca ptr, align 8
  store ptr %0, ptr %5, align 8, !tbaa !42
  store ptr %1, ptr %6, align 8, !tbaa !17
  store ptr %2, ptr %7, align 8, !tbaa !24
  %8 = load ptr, ptr %5, align 8, !tbaa !42
  %9 = load i32, ptr %8, align 4, !tbaa !14
  %10 = sext i32 %9 to i64
  %11 = load ptr, ptr %6, align 8, !tbaa !17
  %12 = load i64, ptr %11, align 8, !tbaa !7
  %13 = icmp eq i64 %10, %12
  %14 = xor i1 %13, true
  %15 = xor i1 %14, true
  %16 = zext i1 %15 to i64
  %17 = call i64 @llvm.expect.i64(i64 %16, i64 1)
  %18 = icmp ne i64 %17, 0
  br i1 %18, label %19, label %20

19:                                               ; preds = %3
  store ptr null, ptr %4, align 8
  br label %25

20:                                               ; preds = %3
  %21 = load ptr, ptr %5, align 8, !tbaa !42
  %22 = load ptr, ptr %6, align 8, !tbaa !17
  %23 = load ptr, ptr %7, align 8, !tbaa !24
  %24 = call noundef ptr @_ZN6google17MakeCheckOpStringIimEEPNSt7__cxx1112basic_stringIcSt11char_traitsIcESaIcEEERKT_RKT0_PKc(ptr noundef nonnull align 4 dereferenceable(4) %21, ptr noundef nonnull align 8 dereferenceable(8) %22, ptr noundef %23)
  store ptr %24, ptr %4, align 8
  br label %25

25:                                               ; preds = %20, %19
  %26 = load ptr, ptr %4, align 8
  ret ptr %26
}

; Function Attrs: inlinehint mustprogress nounwind uwtable
define linkonce_odr noundef i64 @_ZN6google21GetReferenceableValueEm(i64 noundef %0) #4 comdat {
  %2 = alloca i64, align 8
  store i64 %0, ptr %2, align 8, !tbaa !7
  %3 = load i64, ptr %2, align 8, !tbaa !7
  ret i64 %3
}

; Function Attrs: mustprogress nounwind uwtable
define linkonce_odr noundef i64 @_ZNK5folly5RangeIPKhE4sizeEv(ptr noundef nonnull align 8 dereferenceable(16) %0) #0 comdat align 2 {
  %2 = alloca ptr, align 8
  store ptr %0, ptr %2, align 8, !tbaa !26
  %3 = load ptr, ptr %2, align 8
  %4 = getelementptr inbounds nuw %"class.folly::Range", ptr %3, i32 0, i32 1
  %5 = load ptr, ptr %4, align 8, !tbaa !28
  %6 = getelementptr inbounds nuw %"class.folly::Range", ptr %3, i32 0, i32 0
  %7 = load ptr, ptr %6, align 8, !tbaa !30
  %8 = ptrtoint ptr %5 to i64
  %9 = ptrtoint ptr %7 to i64
  %10 = sub i64 %8, %9
  ret i64 %10
}

; Function Attrs: inlinehint mustprogress nounwind uwtable
define linkonce_odr noundef i32 @_ZN6google21GetReferenceableValueEi(i32 noundef %0) #4 comdat {
  %2 = alloca i32, align 4
  store i32 %0, ptr %2, align 4, !tbaa !14
  %3 = load i32, ptr %2, align 4, !tbaa !14
  ret i32 %3
}

; Function Attrs: mustprogress uwtable
define noundef zeroext i1 @_ZN5folly6crypto6detail13MathOperationILNS1_10MathEngineE1EE16checkPaddingBitsEmNS_5RangeIPKhEE(i64 noundef %0, ptr %1, ptr %2) #1 align 2 personality ptr @__gxx_personality_v0 {
  %4 = alloca i1, align 1
  %5 = alloca %"class.folly::Range", align 8
  %6 = alloca i64, align 8
  %7 = alloca %"struct.google::CheckOpString", align 8
  %8 = alloca i32, align 4
  %9 = alloca i64, align 8
  %10 = alloca %"class.google::LogMessageFatal", align 8
  %11 = alloca ptr, align 8
  %12 = alloca i32, align 4
  %13 = alloca i64, align 8
  %14 = alloca i32, align 4
  %15 = alloca i64, align 8
  %16 = getelementptr inbounds nuw { ptr, ptr }, ptr %5, i32 0, i32 0
  store ptr %1, ptr %16, align 8
  %17 = getelementptr inbounds nuw { ptr, ptr }, ptr %5, i32 0, i32 1
  store ptr %2, ptr %17, align 8
  store i64 %0, ptr %6, align 8, !tbaa !7
  %18 = load i64, ptr %6, align 8, !tbaa !7
  %19 = icmp eq i64 %18, -1
  br i1 %19, label %20, label %21

20:                                               ; preds = %3
  store i1 true, ptr %4, align 1
  br label %69

21:                                               ; preds = %3
  br label %22

22:                                               ; preds = %40, %21
  br i1 false, label %23, label %41

23:                                               ; preds = %22
  br label %24

24:                                               ; preds = %23
  call void @llvm.lifetime.start.p0(i64 8, ptr %7) #12
  call void @llvm.lifetime.start.p0(i64 4, ptr %8) #12
  %25 = call noundef i32 @_ZN6google21GetReferenceableValueEi(i32 noundef 0)
  store i32 %25, ptr %8, align 4, !tbaa !14
  call void @llvm.lifetime.start.p0(i64 8, ptr %9) #12
  %26 = call noundef i64 @_ZNK5folly5RangeIPKhE4sizeEv(ptr noundef nonnull align 8 dereferenceable(16) %5)
  %27 = urem i64 %26, 8
  %28 = call noundef i64 @_ZN6google21GetReferenceableValueEm(i64 noundef %27)
  store i64 %28, ptr %9, align 8, !tbaa !7
  %29 = call noundef ptr @_ZN6google12Check_EQImplIimEEPNSt7__cxx1112basic_stringIcSt11char_traitsIcESaIcEEERKT_RKT0_PKc(ptr noundef nonnull align 4 dereferenceable(4) %8, ptr noundef nonnull align 8 dereferenceable(8) %9, ptr noundef @.str.5)
  call void @_ZN6google13CheckOpStringC2EPNSt7__cxx1112basic_stringIcSt11char_traitsIcESaIcEEE(ptr noundef nonnull align 8 dereferenceable(8) %7, ptr noundef %29)
  call void @llvm.lifetime.end.p0(i64 8, ptr %9) #12
  call void @llvm.lifetime.end.p0(i64 4, ptr %8) #12
  %30 = call noundef zeroext i1 @_ZNK6google13CheckOpStringcvbEv(ptr noundef nonnull align 8 dereferenceable(8) %7)
  br i1 %30, label %32, label %31

31:                                               ; preds = %24
  call void @llvm.lifetime.end.p0(i64 8, ptr %7) #12
  br label %40

32:                                               ; preds = %24
  call void @llvm.lifetime.start.p0(i64 16, ptr %10) #12
  call void @_ZN6google15LogMessageFatalC1EPKciRKNS_13CheckOpStringE(ptr noundef nonnull align 8 dereferenceable(16) %10, ptr noundef @.str.1, i32 noundef 198, ptr noundef nonnull align 8 dereferenceable(8) %7)
  %33 = invoke noundef nonnull align 8 dereferenceable(8) ptr @_ZN6google10LogMessage6streamEv(ptr noundef nonnull align 8 dereferenceable(16) %10)
          to label %34 unwind label %35

34:                                               ; preds = %32
  call void @_ZN6google15LogMessageFatalD1Ev(ptr noundef nonnull align 8 dereferenceable(16) %10) #13
  unreachable

35:                                               ; preds = %32
  %36 = landingpad { ptr, i32 }
          cleanup
  %37 = extractvalue { ptr, i32 } %36, 0
  store ptr %37, ptr %11, align 8
  %38 = extractvalue { ptr, i32 } %36, 1
  store i32 %38, ptr %12, align 4
  call void @_ZN6google15LogMessageFatalD1Ev(ptr noundef nonnull align 8 dereferenceable(16) %10) #13
  unreachable

39:                                               ; No predecessors!
  call void @llvm.lifetime.end.p0(i64 16, ptr %10) #12
  call void @llvm.lifetime.end.p0(i64 8, ptr %7) #12
  br label %71

40:                                               ; preds = %31
  br label %22, !llvm.loop !63

41:                                               ; preds = %22
  call void @llvm.lifetime.start.p0(i64 8, ptr %13) #12
  store i64 0, ptr %13, align 8, !tbaa !7
  br label %42

42:                                               ; preds = %63, %41
  %43 = load i64, ptr %13, align 8, !tbaa !7
  %44 = call noundef i64 @_ZNK5folly5RangeIPKhE4sizeEv(ptr noundef nonnull align 8 dereferenceable(16) %5)
  %45 = icmp ult i64 %43, %44
  br i1 %45, label %47, label %46

46:                                               ; preds = %42
  store i32 6, ptr %14, align 4
  br label %66

47:                                               ; preds = %42
  call void @llvm.lifetime.start.p0(i64 8, ptr %15) #12
  %48 = call noundef ptr @_ZNK5folly5RangeIPKhE4dataEv(ptr noundef nonnull align 8 dereferenceable(16) %5)
  %49 = load i64, ptr %13, align 8, !tbaa !7
  %50 = getelementptr inbounds nuw i8, ptr %48, i64 %49
  %51 = load i64, ptr %50, align 8, !tbaa !7
  %52 = call noundef i64 @_ZN5folly6Endian6littleImEET_S2_(i64 noundef %51)
  store i64 %52, ptr %15, align 8, !tbaa !7
  %53 = load i64, ptr %15, align 8, !tbaa !7
  %54 = load i64, ptr %6, align 8, !tbaa !7
  %55 = xor i64 %54, -1
  %56 = and i64 %53, %55
  %57 = icmp ne i64 %56, 0
  br i1 %57, label %58, label %59

58:                                               ; preds = %47
  store i1 false, ptr %4, align 1
  store i32 1, ptr %14, align 4
  br label %60

59:                                               ; preds = %47
  store i32 0, ptr %14, align 4
  br label %60

60:                                               ; preds = %59, %58
  call void @llvm.lifetime.end.p0(i64 8, ptr %15) #12
  %61 = load i32, ptr %14, align 4
  switch i32 %61, label %66 [
    i32 0, label %62
  ]

62:                                               ; preds = %60
  br label %63

63:                                               ; preds = %62
  %64 = load i64, ptr %13, align 8, !tbaa !7
  %65 = add i64 %64, 8
  store i64 %65, ptr %13, align 8, !tbaa !7
  br label %42, !llvm.loop !64

66:                                               ; preds = %60, %46
  call void @llvm.lifetime.end.p0(i64 8, ptr %13) #12
  %67 = load i32, ptr %14, align 4
  switch i32 %67, label %76 [
    i32 6, label %68
    i32 1, label %69
  ]

68:                                               ; preds = %66
  store i1 true, ptr %4, align 1
  br label %69

69:                                               ; preds = %68, %66, %20
  %70 = load i1, ptr %4, align 1
  ret i1 %70

71:                                               ; preds = %39
  %72 = load ptr, ptr %11, align 8
  %73 = load i32, ptr %12, align 4
  %74 = insertvalue { ptr, i32 } poison, ptr %72, 0
  %75 = insertvalue { ptr, i32 } %74, i32 %73, 1
  resume { ptr, i32 } %75

76:                                               ; preds = %66
  unreachable
}