; Function Attrs: mustprogress nofree norecurse nosync nounwind willreturn memory(argmem: read) uwtable
define noundef zeroext i1 @_ZN5folly6crypto6detail13MathOperationILNS1_10MathEngineE1EE16checkPaddingBitsEmNS_5RangeIPKhEE(i64 noundef %0, ptr %1, ptr %2) local_unnamed_addr #5 align 2 personality ptr @__gxx_personality_v0 {
  %4 = icmp eq i64 %0, -1
  br i1 %4, label %.loopexit, label %.preheader

.preheader:                                       ; preds = %3
  %5 = ptrtoint ptr %2 to i64
  %6 = ptrtoint ptr %1 to i64
  %7 = sub i64 %5, %6
  %8 = icmp eq ptr %2, %1
  br i1 %8, label %.loopexit, label %.lr.ph

.lr.ph:                                           ; preds = %.preheader
  %9 = xor i64 %0, -1
  br label %10

10:                                               ; preds = %10, %.lr.ph
  %.01013 = phi i64 [ 0, %.lr.ph ], [ %14, %10 ]
  %11 = getelementptr inbounds nuw i8, ptr %1, i64 %.01013
  %12 = load i64, ptr %11, align 8, !tbaa !15
  %13 = and i64 %12, %9
  %.not = icmp eq i64 %13, 0
  %14 = add i64 %.01013, 8
  %.not16 = icmp ult i64 %14, %7
  %or.cond = select i1 %.not, i1 %.not16, i1 false
  br i1 %or.cond, label %10, label %.loopexit, !llvm.loop !26

.loopexit:                                        ; preds = %10, %.preheader, %3
  %.0 = phi i1 [ true, %3 ], [ true, %.preheader ], [ %.not, %10 ]
  ret i1 %.0
}